target datalayout = "e-m:e-p270:32:32-p271:32:32-p272:64:64-i64:64-i128:128-f80:128-n8:16:32:64-S128"
target triple = "x86_64-pc-linux-gnu"

%struct.client = type { i64, i64, ptr, i8, i8, i8, i8, i32, ptr, ptr, ptr, ptr, ptr, i64, i64, i32, ptr, i32, i32, ptr, i64, ptr, ptr, ptr, ptr, ptr, i32, i32, i64, ptr, i64, ptr, i64, i64, i64, i32, ptr, i64, i64, i32, i32, i32, i32, i64, i64, ptr, i64, i64, i64, i64, i64, i64, i64, i64, [41 x i8], i32, ptr, i32, i32, i64, %struct.multiState, %struct.blockingState, i64, ptr, ptr, ptr, ptr, ptr, ptr, ptr, ptr, ptr, ptr, ptr, ptr, ptr, ptr, i64, ptr, i64, i32, ptr, ptr, ptr, i64, %struct.listNode, i64, i64, i32, i64, ptr }
%struct.multiState = type { ptr, i32, i32, i32, i64, i32 }
%struct.blockingState = type { i32, i64, i32, ptr, i32, i32, i64, ptr, ptr, i64 }
%struct.listNode = type { ptr, ptr, ptr }

@moduleTempClientCount = internal global i64 0, align 8
@moduleTempClients = internal global ptr null, align 8
@moduleTempClientMinCount = internal global i64 0, align 8

; Function Attrs: nounwind uwtable
define dso_local ptr @moduleAllocTempClient() #0 {
  %1 = alloca ptr, align 8
  call void @llvm.lifetime.start.p0(i64 8, ptr %1) #15
  store ptr null, ptr %1, align 8, !tbaa !31
  %2 = load i64, ptr @moduleTempClientCount, align 8, !tbaa !5
  %3 = icmp ugt i64 %2, 0
  br i1 %3, label %4, label %16

4:                                                ; preds = %0
  %5 = load ptr, ptr @moduleTempClients, align 8, !tbaa !32
  %6 = load i64, ptr @moduleTempClientCount, align 8, !tbaa !5
  %7 = add i64 %6, -1
  store i64 %7, ptr @moduleTempClientCount, align 8, !tbaa !5
  %8 = getelementptr inbounds nuw ptr, ptr %5, i64 %7
  %9 = load ptr, ptr %8, align 8, !tbaa !31
  store ptr %9, ptr %1, align 8, !tbaa !31
  %10 = load i64, ptr @moduleTempClientCount, align 8, !tbaa !5
  %11 = load i64, ptr @moduleTempClientMinCount, align 8, !tbaa !5
  %12 = icmp ult i64 %10, %11
  br i1 %12, label %13, label %15

13:                                               ; preds = %4
  %14 = load i64, ptr @moduleTempClientCount, align 8, !tbaa !5
  store i64 %14, ptr @moduleTempClientMinCount, align 8, !tbaa !5
  br label %15

15:                                               ; preds = %13, %4
  br label %24

16:                                               ; preds = %0
  %17 = call ptr @createClient(ptr noundef null)
  store ptr %17, ptr %1, align 8, !tbaa !31
  %18 = load ptr, ptr %1, align 8, !tbaa !31
  %19 = getelementptr inbounds nuw %struct.client, ptr %18, i32 0, i32 1
  %20 = load i64, ptr %19, align 8, !tbaa !34
  %21 = or i64 %20, 134217728
  store i64 %21, ptr %19, align 8, !tbaa !34
  %22 = load ptr, ptr %1, align 8, !tbaa !31
  %23 = getelementptr inbounds nuw %struct.client, ptr %22, i32 0, i32 25
  store ptr null, ptr %23, align 8, !tbaa !49
  br label %24

24:                                               ; preds = %16, %15
  %25 = load ptr, ptr %1, align 8, !tbaa !31
  call void @llvm.lifetime.end.p0(i64 8, ptr %1) #15
  ret ptr %25
}