; Function Attrs: nounwind uwtable
define dso_local ptr @moduleAllocTempClient() local_unnamed_addr #0 {
  %1 = load i64, ptr @moduleTempClientCount, align 8, !tbaa !24
  %.not = icmp eq i64 %1, 0
  br i1 %.not, label %10, label %2

2:                                                ; preds = %0
  %3 = load ptr, ptr @moduleTempClients, align 8, !tbaa !26
  %4 = add i64 %1, -1
  store i64 %4, ptr @moduleTempClientCount, align 8, !tbaa !24
  %5 = getelementptr inbounds nuw ptr, ptr %3, i64 %4
  %6 = load ptr, ptr %5, align 8, !tbaa !28
  %7 = load i64, ptr @moduleTempClientMinCount, align 8, !tbaa !24
  %8 = icmp ult i64 %4, %7
  br i1 %8, label %9, label %16

9:                                                ; preds = %2
  store i64 %4, ptr @moduleTempClientMinCount, align 8, !tbaa !24
  br label %16

10:                                               ; preds = %0
  %11 = tail call ptr @createClient(ptr noundef null) #35
  %12 = getelementptr inbounds nuw i8, ptr %11, i64 8
  %13 = load i64, ptr %12, align 8, !tbaa !29
  %14 = or i64 %13, 134217728
  store i64 %14, ptr %12, align 8, !tbaa !29
  %15 = getelementptr inbounds nuw i8, ptr %11, i64 160
  store ptr null, ptr %15, align 8, !tbaa !45
  br label %16

16:                                               ; preds = %2, %9, %10
  %.0 = phi ptr [ %6, %9 ], [ %6, %2 ], [ %11, %10 ]
  ret ptr %.0
}